target datalayout = "e-m:e-p270:32:32-p271:32:32-p272:64:64-i64:64-i128:128-f80:128-n8:16:32:64-S128"
target triple = "x86_64-pc-linux-gnu"

%struct.Expr = type { i32 }
%struct.SubscriptingRef = type { %struct.Expr, i32, i32, i32, i32, i32, ptr, ptr, ptr, ptr }

@.str.1 = private unnamed_addr constant [15 x i8] c"parse_target.c\00", align 1
@.str.16 = private unnamed_addr constant [26 x i8] c"cannot cast type %s to %s\00", align 1
@__func__.transformAssignmentSubscripts = private unnamed_addr constant [30 x i8] c"transformAssignmentSubscripts\00", align 1

; Function Attrs: nounwind uwtable
define internal ptr @transformAssignmentSubscripts(ptr noundef %0, ptr noundef %1, ptr noundef %2, i32 noundef %3, i32 noundef %4, i32 noundef %5, ptr noundef %6, ptr noundef %7, ptr noundef %8, ptr noundef %9, i32 noundef %10, i32 noundef %11) #0 {
  %13 = alloca ptr, align 8
  %14 = alloca ptr, align 8
  %15 = alloca ptr, align 8
  %16 = alloca i32, align 4
  %17 = alloca i32, align 4
  %18 = alloca i32, align 4
  %19 = alloca ptr, align 8
  %20 = alloca ptr, align 8
  %21 = alloca ptr, align 8
  %22 = alloca ptr, align 8
  %23 = alloca i32, align 4
  %24 = alloca i32, align 4
  %25 = alloca ptr, align 8
  %26 = alloca ptr, align 8
  %27 = alloca i32, align 4
  %28 = alloca i32, align 4
  %29 = alloca i32, align 4
  %30 = alloca i32, align 4
  %31 = alloca i32, align 4
  %32 = alloca i32, align 4
  store ptr %0, ptr %13, align 8
  store ptr %1, ptr %14, align 8
  store ptr %2, ptr %15, align 8
  store i32 %3, ptr %16, align 4
  store i32 %4, ptr %17, align 4
  store i32 %5, ptr %18, align 4
  store ptr %6, ptr %19, align 8
  store ptr %7, ptr %20, align 8
  store ptr %8, ptr %21, align 8
  store ptr %9, ptr %22, align 8
  store i32 %10, ptr %23, align 4
  store i32 %11, ptr %24, align 4
  call void @llvm.lifetime.start.p0(i64 8, ptr %25) #8
  call void @llvm.lifetime.start.p0(i64 8, ptr %26) #8
  call void @llvm.lifetime.start.p0(i64 4, ptr %27) #8
  call void @llvm.lifetime.start.p0(i64 4, ptr %28) #8
  call void @llvm.lifetime.start.p0(i64 4, ptr %29) #8
  call void @llvm.lifetime.start.p0(i64 4, ptr %30) #8
  call void @llvm.lifetime.start.p0(i64 4, ptr %31) #8
  %33 = load i32, ptr %16, align 4
  store i32 %33, ptr %27, align 4
  %34 = load i32, ptr %17, align 4
  store i32 %34, ptr %28, align 4
  call void @transformContainerType(ptr noundef %27, ptr noundef %28)
  %35 = load ptr, ptr %13, align 8
  %36 = load ptr, ptr %14, align 8
  %37 = load i32, ptr %27, align 4
  %38 = load i32, ptr %28, align 4
  %39 = load ptr, ptr %19, align 8
  %40 = call ptr @transformContainerSubscripts(ptr noundef %35, ptr noundef %36, i32 noundef %37, i32 noundef %38, ptr noundef %39, i1 noundef zeroext true)
  store ptr %40, ptr %26, align 8
  %41 = load ptr, ptr %26, align 8
  %42 = getelementptr inbounds nuw %struct.SubscriptingRef, ptr %41, i32 0, i32 3
  %43 = load i32, ptr %42, align 4
  store i32 %43, ptr %29, align 4
  %44 = load ptr, ptr %26, align 8
  %45 = getelementptr inbounds nuw %struct.SubscriptingRef, ptr %44, i32 0, i32 4
  %46 = load i32, ptr %45, align 8
  store i32 %46, ptr %30, align 4
  %47 = load i32, ptr %27, align 4
  %48 = load i32, ptr %16, align 4
  %49 = icmp eq i32 %47, %48
  br i1 %49, label %50, label %52

50:                                               ; preds = %12
  %51 = load i32, ptr %18, align 4
  store i32 %51, ptr %31, align 4
  br label %55

52:                                               ; preds = %12
  %53 = load i32, ptr %27, align 4
  %54 = call i32 @get_typcollation(i32 noundef %53)
  store i32 %54, ptr %31, align 4
  br label %55

55:                                               ; preds = %52, %50
  %56 = load ptr, ptr %13, align 8
  %57 = load ptr, ptr %15, align 8
  %58 = load i32, ptr %29, align 4
  %59 = load i32, ptr %30, align 4
  %60 = load i32, ptr %31, align 4
  %61 = load ptr, ptr %20, align 8
  %62 = load ptr, ptr %21, align 8
  %63 = load ptr, ptr %22, align 8
  %64 = load i32, ptr %23, align 4
  %65 = load i32, ptr %24, align 4
  %66 = call ptr @transformAssignmentIndirection(ptr noundef %56, ptr noundef null, ptr noundef %57, i1 noundef zeroext true, i32 noundef %58, i32 noundef %59, i32 noundef %60, ptr noundef %61, ptr noundef %62, ptr noundef %63, i32 noundef %64, i32 noundef %65)
  store ptr %66, ptr %22, align 8
  %67 = load ptr, ptr %22, align 8
  %68 = load ptr, ptr %26, align 8
  %69 = getelementptr inbounds nuw %struct.SubscriptingRef, ptr %68, i32 0, i32 9
  store ptr %67, ptr %69, align 8
  %70 = load i32, ptr %27, align 4
  %71 = load ptr, ptr %26, align 8
  %72 = getelementptr inbounds nuw %struct.SubscriptingRef, ptr %71, i32 0, i32 3
  store i32 %70, ptr %72, align 4
  %73 = load i32, ptr %28, align 4
  %74 = load ptr, ptr %26, align 8
  %75 = getelementptr inbounds nuw %struct.SubscriptingRef, ptr %74, i32 0, i32 4
  store i32 %73, ptr %75, align 8
  %76 = load ptr, ptr %26, align 8
  store ptr %76, ptr %25, align 8
  %77 = load i32, ptr %27, align 4
  %78 = load i32, ptr %16, align 4
  %79 = icmp ne i32 %77, %78
  br i1 %79, label %80, label %112

80:                                               ; preds = %55
  call void @llvm.lifetime.start.p0(i64 4, ptr %32) #8
  %81 = load ptr, ptr %25, align 8
  %82 = call i32 @exprType(ptr noundef %81)
  store i32 %82, ptr %32, align 4
  %83 = load ptr, ptr %13, align 8
  %84 = load ptr, ptr %25, align 8
  %85 = load i32, ptr %32, align 4
  %86 = load i32, ptr %16, align 4
  %87 = load i32, ptr %17, align 4
  %88 = load i32, ptr %23, align 4
  %89 = call ptr @coerce_to_target_type(ptr noundef %83, ptr noundef %84, i32 noundef %85, i32 noundef %86, i32 noundef %87, i32 noundef %88, i32 noundef 2, i32 noundef -1)
  store ptr %89, ptr %25, align 8
  %90 = load ptr, ptr %25, align 8
  %91 = icmp eq ptr %90, null
  br i1 %91, label %92, label %111

92:                                               ; preds = %80
  br label %93

93:                                               ; preds = %92
  br i1 true, label %94, label %96

94:                                               ; preds = %93
  %95 = call zeroext i1 @errstart_cold(i32 noundef 21, ptr noundef null) #10
  br i1 %95, label %98, label %108

96:                                               ; preds = %93
  %97 = call zeroext i1 @errstart(i32 noundef 21, ptr noundef null)
  br i1 %97, label %98, label %108

98:                                               ; preds = %96, %94
  %99 = call i32 @errcode(i32 noundef 101744772)
  %100 = load i32, ptr %32, align 4
  %101 = call ptr @format_type_be(i32 noundef %100)
  %102 = load i32, ptr %16, align 4
  %103 = call ptr @format_type_be(i32 noundef %102)
  %104 = call i32 (ptr, ...) @errmsg(ptr noundef @.str.16, ptr noundef %101, ptr noundef %103)
  %105 = load ptr, ptr %13, align 8
  %106 = load i32, ptr %24, align 4
  %107 = call i32 @parser_errposition(ptr noundef %105, i32 noundef %106)
  call void @errfinish(ptr noundef @.str.1, i32 noundef 1004, ptr noundef @__func__.transformAssignmentSubscripts)
  br label %108

108:                                              ; preds = %98, %96, %94
  unreachable

109:                                              ; No predecessors!
  br label %110

110:                                              ; preds = %109
  br label %111

111:                                              ; preds = %110, %80
  call void @llvm.lifetime.end.p0(i64 4, ptr %32) #8
  br label %112

112:                                              ; preds = %111, %55
  %113 = load ptr, ptr %25, align 8
  call void @llvm.lifetime.end.p0(i64 4, ptr %31) #8
  call void @llvm.lifetime.end.p0(i64 4, ptr %30) #8
  call void @llvm.lifetime.end.p0(i64 4, ptr %29) #8
  call void @llvm.lifetime.end.p0(i64 4, ptr %28) #8
  call void @llvm.lifetime.end.p0(i64 4, ptr %27) #8
  call void @llvm.lifetime.end.p0(i64 8, ptr %26) #8
  call void @llvm.lifetime.end.p0(i64 8, ptr %25) #8
  ret ptr %113
}