; Function Attrs: nounwind uwtable
define internal fastcc ptr @transformAssignmentSubscripts(ptr noundef %0, ptr noundef %1, ptr noundef %2, i32 noundef %3, i32 noundef %4, i32 noundef %5, ptr noundef nonnull %6, ptr noundef captures(address_is_null) %7, ptr noundef %8, ptr noundef %9, i32 noundef %10, i32 noundef %11) unnamed_addr #0 {
  %13 = alloca i32, align 4
  %14 = alloca i32, align 4
  call void @llvm.lifetime.start.p0(i64 4, ptr nonnull %13) #8
  call void @llvm.lifetime.start.p0(i64 4, ptr nonnull %14) #8
  store i32 %3, ptr %13, align 4
  store i32 %4, ptr %14, align 4
  call void @transformContainerType(ptr noundef nonnull %13, ptr noundef nonnull %14) #8
  %15 = load i32, ptr %13, align 4
  %16 = load i32, ptr %14, align 4
  %17 = call ptr @transformContainerSubscripts(ptr noundef %0, ptr noundef %1, i32 noundef %15, i32 noundef %16, ptr noundef nonnull %6, i1 noundef zeroext true) #8
  %18 = getelementptr inbounds nuw i8, ptr %17, i64 12
  %19 = load i32, ptr %18, align 4
  %20 = getelementptr inbounds nuw i8, ptr %17, i64 16
  %21 = load i32, ptr %20, align 8
  %22 = load i32, ptr %13, align 4
  %23 = icmp eq i32 %22, %3
  br i1 %23, label %26, label %24

24:                                               ; preds = %12
  %25 = call i32 @get_typcollation(i32 noundef %22) #8
  br label %26

26:                                               ; preds = %12, %24
  %.0 = phi i32 [ %25, %24 ], [ %5, %12 ]
  %27 = call ptr @transformAssignmentIndirection(ptr noundef %0, ptr noundef null, ptr noundef %2, i1 noundef zeroext true, i32 noundef %19, i32 noundef %21, i32 noundef %.0, ptr noundef %7, ptr noundef %8, ptr noundef %9, i32 noundef %10, i32 noundef %11)
  %28 = getelementptr inbounds nuw i8, ptr %17, i64 48
  store ptr %27, ptr %28, align 8
  %29 = load i32, ptr %13, align 4
  store i32 %29, ptr %18, align 4
  %30 = load i32, ptr %14, align 4
  store i32 %30, ptr %20, align 8
  %.not = icmp eq i32 %29, %3
  br i1 %.not, label %42, label %31

31:                                               ; preds = %26
  %32 = call i32 @exprType(ptr noundef nonnull %17) #8
  %33 = call ptr @coerce_to_target_type(ptr noundef %0, ptr noundef nonnull %17, i32 noundef %32, i32 noundef %3, i32 noundef %4, i32 noundef %10, i32 noundef 2, i32 noundef -1) #8
  %34 = icmp eq ptr %33, null
  br i1 %34, label %35, label %42

35:                                               ; preds = %31
  %36 = call zeroext i1 @errstart_cold(i32 noundef 21, ptr noundef null) #9
  call void @llvm.assume(i1 %36)
  %37 = call i32 @errcode(i32 noundef 101744772) #8
  %38 = call ptr @format_type_be(i32 noundef %32) #8
  %39 = call ptr @format_type_be(i32 noundef %3) #8
  %40 = call i32 (ptr, ...) @errmsg(ptr noundef nonnull @.str.16, ptr noundef %38, ptr noundef %39) #8
  %41 = call i32 @parser_errposition(ptr noundef %0, i32 noundef %11) #8
  call void @errfinish(ptr noundef nonnull @.str.1, i32 noundef 1004, ptr noundef nonnull @__func__.transformAssignmentSubscripts) #8
  unreachable

42:                                               ; preds = %31, %26
  %.037 = phi ptr [ %17, %26 ], [ %33, %31 ]
  call void @llvm.lifetime.end.p0(i64 4, ptr nonnull %14) #8
  call void @llvm.lifetime.end.p0(i64 4, ptr nonnull %13) #8
  ret ptr %.037
}